; Function Attrs: null_pointer_is_valid sspstrong uwtable
define ptr @tvb_address_var_to_str(ptr noundef %0, ptr noundef %1, i32 noundef %2, i32 noundef %3, i32 noundef %4) local_unnamed_addr #6 {
  %6 = alloca %struct._address, align 8
  call void @llvm.lifetime.start.p0(i64 24, ptr nonnull %6) #18
  %.not.i = icmp eq i32 %4, 0
  br i1 %.not.i, label %set_address_tvb.exit, label %.split.i

.split.i:                                         ; preds = %5
  %7 = tail call ptr @tvb_get_ptr(ptr noundef %1, i32 noundef %3, i32 noundef %4)
  br label %set_address_tvb.exit

set_address_tvb.exit:                             ; preds = %5, %.split.i
  %.sink.i = phi ptr [ %7, %.split.i ], [ null, %5 ]
  store i32 %2, ptr %6, align 8
  %8 = getelementptr inbounds nuw i8, ptr %6, i64 4
  store i32 %4, ptr %8, align 4
  %9 = getelementptr inbounds nuw i8, ptr %6, i64 8
  store ptr %.sink.i, ptr %9, align 8
  %10 = getelementptr inbounds nuw i8, ptr %6, i64 16
  store ptr null, ptr %10, align 8
  %11 = sext i32 %2 to i64
  %12 = getelementptr [45 x ptr], ptr @type_list, i64 0, i64 %11
  %13 = load ptr, ptr %12, align 8
  %14 = icmp eq ptr %13, null
  br i1 %14, label %address_type_get_length.exit.thread.i, label %address_type_get_length.exit.i

address_type_get_length.exit.i:                   ; preds = %set_address_tvb.exit
  %15 = getelementptr inbounds nuw i8, ptr %13, i64 32
  %16 = load ptr, ptr %15, align 8
  %17 = call i32 %16(ptr noundef nonnull %6)
  %.fr.i = freeze i32 %17
  %18 = icmp slt i32 %.fr.i, 1
  br i1 %18, label %address_type_get_length.exit.thread.i, label %19

address_type_get_length.exit.thread.i:            ; preds = %address_type_get_length.exit.i, %set_address_tvb.exit
  br label %19

19:                                               ; preds = %address_type_get_length.exit.thread.i, %address_type_get_length.exit.i
  %20 = phi i32 [ 256, %address_type_get_length.exit.thread.i ], [ %.fr.i, %address_type_get_length.exit.i ]
  %21 = zext nneg i32 %20 to i64
  %22 = call noalias ptr @wmem_alloc(ptr noundef %0, i64 noundef %21) #19
  %.not.i4 = icmp eq ptr %22, null
  br i1 %.not.i4, label %address_to_str.exit, label %23

23:                                               ; preds = %19
  %24 = load i32, ptr %6, align 8
  %25 = sext i32 %24 to i64
  %26 = getelementptr [45 x ptr], ptr @type_list, i64 0, i64 %25
  %27 = load ptr, ptr %26, align 8
  %28 = icmp eq ptr %27, null
  br i1 %28, label %33, label %29

29:                                               ; preds = %23
  %30 = getelementptr inbounds nuw i8, ptr %27, i64 24
  %31 = load ptr, ptr %30, align 8
  %32 = icmp eq ptr %31, null
  br i1 %32, label %33, label %34

33:                                               ; preds = %29, %23
  store i8 0, ptr %22, align 1
  br label %address_to_str.exit

34:                                               ; preds = %29
  %35 = call i32 %31(ptr noundef nonnull %6, ptr noundef nonnull %22, i32 noundef %20)
  br label %address_to_str.exit

address_to_str.exit:                              ; preds = %19, %33, %34
  call void @llvm.lifetime.end.p0(i64 24, ptr nonnull %6) #18
  ret ptr %22
}